target datalayout = "e-m:e-p270:32:32-p271:32:32-p272:64:64-i64:64-i128:128-f80:128-n8:16:32:64-S128"
target triple = "x86_64-pc-linux-gnu"

%struct.stat = type { i64, i64, i64, i32, i32, i32, i32, i64, i64, i64, i64, %struct.timespec, %struct.timespec, %struct.timespec, [3 x i64] }
%struct.timespec = type { i64, i64 }
%struct.dirent = type { i64, i64, i16, i8, [256 x i8] }

@.str = private unnamed_addr constant [2 x i8] c".\00", align 1
@.str.1 = private unnamed_addr constant [3 x i8] c"..\00", align 1
@.str.3 = private unnamed_addr constant [6 x i8] c"%s/%s\00", align 1

; Function Attrs: nounwind uwtable
define i32 @find_file(ptr noundef %0, ptr noundef %1, ptr noundef %2, i64 noundef %3) #0 {
  %5 = alloca i32, align 4
  %6 = alloca ptr, align 8
  %7 = alloca ptr, align 8
  %8 = alloca ptr, align 8
  %9 = alloca i64, align 8
  %10 = alloca ptr, align 8
  %11 = alloca ptr, align 8
  %12 = alloca [4096 x i8], align 16
  %13 = alloca i32, align 4
  %14 = alloca i64, align 8
  %15 = alloca %struct.stat, align 8
  store ptr %0, ptr %6, align 8
  store ptr %1, ptr %7, align 8
  store ptr %2, ptr %8, align 8
  store i64 %3, ptr %9, align 8
  %16 = load ptr, ptr %8, align 8
  %17 = icmp ne ptr %16, null
  br i1 %17, label %19, label %18

18:                                               ; preds = %4
  store i32 2, ptr %5, align 4
  br label %124

19:                                               ; preds = %4
  %20 = load ptr, ptr %7, align 8
  %21 = call ptr @opendir(ptr noundef %20)
  store ptr %21, ptr %10, align 8
  %22 = icmp ne ptr %21, null
  br i1 %22, label %23, label %123

23:                                               ; preds = %19
  br label %24

24:                                               ; preds = %119, %23
  %25 = load ptr, ptr %10, align 8
  %26 = call ptr @readdir(ptr noundef %25)
  store ptr %26, ptr %11, align 8
  %27 = icmp ne ptr %26, null
  br i1 %27, label %28, label %120

28:                                               ; preds = %24
  %29 = load ptr, ptr %11, align 8
  %30 = getelementptr inbounds %struct.dirent, ptr %29, i32 0, i32 0
  %31 = load i64, ptr %30, align 8
  %32 = icmp ne i64 %31, 0
  br i1 %32, label %33, label %119

33:                                               ; preds = %28
  %34 = load ptr, ptr %11, align 8
  %35 = getelementptr inbounds %struct.dirent, ptr %34, i32 0, i32 4
  %36 = getelementptr inbounds [256 x i8], ptr %35, i64 0, i64 0
  %37 = call i32 @strcmp(ptr noundef %36, ptr noundef @.str) #9
  %38 = icmp ne i32 %37, 0
  br i1 %38, label %39, label %118

39:                                               ; preds = %33
  %40 = load ptr, ptr %11, align 8
  %41 = getelementptr inbounds %struct.dirent, ptr %40, i32 0, i32 4
  %42 = getelementptr inbounds [256 x i8], ptr %41, i64 0, i64 0
  %43 = call i32 @strcmp(ptr noundef %42, ptr noundef @.str.1) #9
  %44 = icmp ne i32 %43, 0
  br i1 %44, label %45, label %118

45:                                               ; preds = %39
  %46 = getelementptr inbounds [4096 x i8], ptr %12, i64 0, i64 0
  %47 = load ptr, ptr %7, align 8
  %48 = load ptr, ptr %11, align 8
  %49 = getelementptr inbounds %struct.dirent, ptr %48, i32 0, i32 4
  %50 = getelementptr inbounds [256 x i8], ptr %49, i64 0, i64 0
  %51 = call i32 (ptr, i64, ptr, ...) @snprintf(ptr noundef %46, i64 noundef 4096, ptr noundef @.str.3, ptr noundef %47, ptr noundef %50) #11
  %52 = getelementptr inbounds [4096 x i8], ptr %12, i64 0, i64 4095
  store i8 0, ptr %52, align 1
  %53 = getelementptr inbounds [4096 x i8], ptr %12, i64 0, i64 0
  %54 = call i32 @lstat(ptr noundef %53, ptr noundef %15) #11
  %55 = icmp ne i32 %54, -1
  br i1 %55, label %56, label %117

56:                                               ; preds = %45
  %57 = getelementptr inbounds %struct.stat, ptr %15, i32 0, i32 3
  %58 = load i32, ptr %57, align 8
  %59 = and i32 %58, 61440
  %60 = icmp eq i32 %59, 16384
  br i1 %60, label %61, label %79

61:                                               ; preds = %56
  %62 = getelementptr inbounds %struct.stat, ptr %15, i32 0, i32 3
  %63 = load i32, ptr %62, align 8
  %64 = and i32 %63, 61440
  %65 = icmp eq i32 %64, 40960
  br i1 %65, label %79, label %66

66:                                               ; preds = %61
  %67 = load ptr, ptr %6, align 8
  %68 = getelementptr inbounds [4096 x i8], ptr %12, i64 0, i64 0
  %69 = load ptr, ptr %8, align 8
  %70 = load i64, ptr %9, align 8
  %71 = call i32 @find_file(ptr noundef %67, ptr noundef %68, ptr noundef %69, i64 noundef %70)
  store i32 %71, ptr %13, align 4
  %72 = load i32, ptr %13, align 4
  %73 = icmp eq i32 %72, 0
  br i1 %73, label %74, label %78

74:                                               ; preds = %66
  %75 = load ptr, ptr %10, align 8
  %76 = call i32 @closedir(ptr noundef %75)
  %77 = load i32, ptr %13, align 4
  store i32 %77, ptr %5, align 4
  br label %124

78:                                               ; preds = %66
  br label %116

79:                                               ; preds = %61, %56
  %80 = getelementptr inbounds %struct.stat, ptr %15, i32 0, i32 3
  %81 = load i32, ptr %80, align 8
  %82 = and i32 %81, 61440
  %83 = icmp eq i32 %82, 32768
  br i1 %83, label %84, label %115

84:                                               ; preds = %79
  %85 = load ptr, ptr %11, align 8
  %86 = getelementptr inbounds %struct.dirent, ptr %85, i32 0, i32 4
  %87 = getelementptr inbounds [256 x i8], ptr %86, i64 0, i64 0
  %88 = load ptr, ptr %6, align 8
  %89 = call i32 @strcmp(ptr noundef %87, ptr noundef %88) #9
  %90 = icmp eq i32 %89, 0
  br i1 %90, label %91, label %114

91:                                               ; preds = %84
  %92 = load ptr, ptr %7, align 8
  %93 = call i64 @strlen(ptr noundef %92) #9
  %94 = add i64 %93, 1
  %95 = load i64, ptr %9, align 8
  %96 = icmp ult i64 %94, %95
  br i1 %96, label %97, label %101

97:                                               ; preds = %91
  %98 = load ptr, ptr %7, align 8
  %99 = call i64 @strlen(ptr noundef %98) #9
  %100 = add i64 %99, 1
  br label %103

101:                                              ; preds = %91
  %102 = load i64, ptr %9, align 8
  br label %103

103:                                              ; preds = %101, %97
  %104 = phi i64 [ %100, %97 ], [ %102, %101 ]
  store i64 %104, ptr %14, align 8
  %105 = load ptr, ptr %8, align 8
  %106 = load ptr, ptr %7, align 8
  %107 = load i64, ptr %14, align 8
  call void @llvm.memcpy.p0.p0.i64(ptr align 1 %105, ptr align 1 %106, i64 %107, i1 false)
  %108 = load ptr, ptr %8, align 8
  %109 = load i64, ptr %14, align 8
  %110 = sub i64 %109, 1
  %111 = getelementptr inbounds i8, ptr %108, i64 %110
  store i8 0, ptr %111, align 1
  %112 = load ptr, ptr %10, align 8
  %113 = call i32 @closedir(ptr noundef %112)
  store i32 0, ptr %5, align 4
  br label %124

114:                                              ; preds = %84
  br label %115

115:                                              ; preds = %114, %79
  br label %116

116:                                              ; preds = %115, %78
  br label %117

117:                                              ; preds = %116, %45
  br label %118

118:                                              ; preds = %117, %39, %33
  br label %119

119:                                              ; preds = %118, %28
  br label %24

120:                                              ; preds = %24
  %121 = load ptr, ptr %10, align 8
  %122 = call i32 @closedir(ptr noundef %121)
  br label %123

123:                                              ; preds = %120, %19
  store i32 8, ptr %5, align 4
  br label %124

124:                                              ; preds = %123, %103, %74, %18
  %125 = load i32, ptr %5, align 4
  ret i32 %125
}