; Function Attrs: nounwind uwtable
define range(i32 0, 9) i32 @find_file(ptr noundef readonly captures(none) %0, ptr noundef %1, ptr noundef %2, i64 noundef %3) local_unnamed_addr #0 {
  %5 = alloca [4096 x i8], align 16
  %6 = alloca %struct.stat, align 8
  %.not = icmp eq ptr %2, null
  br i1 %.not, label %44, label %7

7:                                                ; preds = %4
  %8 = tail call ptr @opendir(ptr noundef %1)
  %.not32 = icmp eq ptr %8, null
  br i1 %.not32, label %44, label %.preheader

.preheader:                                       ; preds = %7
  %9 = tail call ptr @readdir(ptr noundef nonnull %8) #16
  %.not3342 = icmp eq ptr %9, null
  br i1 %.not3342, label %.sink.split, label %.lr.ph

.lr.ph:                                           ; preds = %.preheader
  %10 = getelementptr inbounds nuw i8, ptr %5, i64 4095
  %11 = getelementptr inbounds nuw i8, ptr %6, i64 24
  br label %12

12:                                               ; preds = %.lr.ph, %41
  %13 = phi ptr [ %9, %.lr.ph ], [ %42, %41 ]
  %14 = load i64, ptr %13, align 8
  %.not34 = icmp eq i64 %14, 0
  br i1 %.not34, label %41, label %sub_0

sub_0:                                            ; preds = %12
  %15 = getelementptr inbounds nuw i8, ptr %13, i64 19
  %16 = load i8, ptr %15, align 1
  %.not43 = icmp eq i8 %16, 46
  br i1 %.not43, label %.tail, label %.tail38.thread

.tail:                                            ; preds = %sub_0
  %17 = getelementptr inbounds nuw i8, ptr %13, i64 20
  %18 = load i8, ptr %17, align 1
  %19 = icmp eq i8 %18, 0
  br i1 %19, label %41, label %sub_140

sub_140:                                          ; preds = %.tail
  %20 = getelementptr inbounds nuw i8, ptr %13, i64 20
  %21 = load i8, ptr %20, align 1
  %.not45 = icmp eq i8 %21, 46
  br i1 %.not45, label %.tail38, label %.tail38.thread

.tail38:                                          ; preds = %sub_140
  %22 = getelementptr inbounds nuw i8, ptr %13, i64 21
  %23 = load i8, ptr %22, align 1
  %24 = icmp eq i8 %23, 0
  br i1 %24, label %41, label %.tail38.thread

.tail38.thread:                                   ; preds = %sub_0, %sub_140, %.tail38
  %25 = call i32 (ptr, i64, ptr, ...) @snprintf(ptr noundef nonnull dereferenceable(1) %5, i64 noundef 4096, ptr noundef nonnull @.str.3, ptr noundef %1, ptr noundef nonnull %15) #16
  store i8 0, ptr %10, align 1
  %26 = call i32 @lstat(ptr noundef nonnull %5, ptr noundef nonnull %6) #16
  %.not37 = icmp eq i32 %26, -1
  br i1 %.not37, label %41, label %27

27:                                               ; preds = %.tail38.thread
  %28 = load i32, ptr %11, align 8
  %29 = trunc i32 %28 to i16
  %trunc = and i16 %29, -4096
  switch i16 %trunc, label %41 [
    i16 16384, label %30
    i16 -32768, label %33
  ]

30:                                               ; preds = %27
  %31 = call i32 @find_file(ptr noundef %0, ptr noundef nonnull %5, ptr noundef nonnull %2, i64 noundef %3)
  %32 = icmp eq i32 %31, 0
  br i1 %32, label %.sink.split, label %41

33:                                               ; preds = %27
  %34 = call i32 @strcmp(ptr noundef nonnull dereferenceable(1) %15, ptr noundef nonnull dereferenceable(1) %0) #17
  %35 = icmp eq i32 %34, 0
  br i1 %35, label %36, label %41

36:                                               ; preds = %33
  %37 = call i64 @strlen(ptr noundef nonnull dereferenceable(1) %1) #17
  %38 = add i64 %37, 1
  %. = call i64 @llvm.umin.i64(i64 %38, i64 %3)
  call void @llvm.memcpy.p0.p0.i64(ptr nonnull align 1 %2, ptr nonnull align 1 %1, i64 %., i1 false)
  %39 = getelementptr i8, ptr %2, i64 %.
  %40 = getelementptr i8, ptr %39, i64 -1
  store i8 0, ptr %40, align 1
  br label %.sink.split

41:                                               ; preds = %27, %.tail, %.tail38, %30, %33, %.tail38.thread, %12
  %42 = call ptr @readdir(ptr noundef nonnull %8) #16
  %.not33 = icmp eq ptr %42, null
  br i1 %.not33, label %.sink.split, label %12

.sink.split:                                      ; preds = %41, %30, %.preheader, %36
  %.0.ph = phi i32 [ 0, %36 ], [ 8, %.preheader ], [ 0, %30 ], [ 8, %41 ]
  %43 = call i32 @closedir(ptr noundef nonnull %8)
  br label %44

44:                                               ; preds = %.sink.split, %7, %4
  %.0 = phi i32 [ 2, %4 ], [ 8, %7 ], [ %.0.ph, %.sink.split ]
  ret i32 %.0
}